; Function Attrs: mustprogress uwtable
define void @_ZN8QuantLib15EnergyCommodityC2ENS_13CommodityTypeERKN5boost10shared_ptrISt3mapINSt7__cxx1112basic_stringIcSt11char_traitsIcESaIcEEENS2_3anyESt4lessISA_ESaISt4pairIKSA_SB_EEEEE(ptr noundef nonnull align 8 dereferenceable(208) %this, ptr noundef %vtt, ptr nocapture noundef %commodityType, ptr nocapture noundef nonnull readonly align 8 dereferenceable(16) %secondaryCosts) unnamed_addr #9 align 2 personality ptr @__gxx_personality_v0 {
entry:
  %agg.tmp = alloca %"class.boost::shared_ptr.23", align 8
  %0 = load ptr, ptr %secondaryCosts, align 8, !tbaa !64
  store ptr %0, ptr %agg.tmp, align 8, !tbaa !64
  %pn.i = getelementptr inbounds nuw i8, ptr %agg.tmp, i64 8
  %pn3.i = getelementptr inbounds nuw i8, ptr %secondaryCosts, i64 8
  %1 = load ptr, ptr %pn3.i, align 8, !tbaa !50
  store ptr %1, ptr %pn.i, align 8, !tbaa !50
  %cmp.not.i.i = icmp eq ptr %1, null
  br i1 %cmp.not.i.i, label %_ZN5boost10shared_ptrISt3mapINSt7__cxx1112basic_stringIcSt11char_traitsIcESaIcEEENS_3anyESt4lessIS7_ESaISt4pairIKS7_S8_EEEEC2ERKSG_.exit, label %if.then.i.i

if.then.i.i:                                      ; preds = %entry
  %use_count_.i.i.i = getelementptr inbounds nuw i8, ptr %1, i64 8
  %2 = atomicrmw add ptr %use_count_.i.i.i, i32 1 monotonic, align 4
  br label %_ZN5boost10shared_ptrISt3mapINSt7__cxx1112basic_stringIcSt11char_traitsIcESaIcEEENS_3anyESt4lessIS7_ESaISt4pairIKS7_S8_EEEEC2ERKSG_.exit

_ZN5boost10shared_ptrISt3mapINSt7__cxx1112basic_stringIcSt11char_traitsIcESaIcEEENS_3anyESt4lessIS7_ESaISt4pairIKS7_S8_EEEEC2ERKSG_.exit: ; preds = %entry, %if.then.i.i
  %3 = getelementptr inbounds i8, ptr %vtt, i64 8
  invoke void @_ZN8QuantLib9CommodityC2EN5boost10shared_ptrISt3mapINSt7__cxx1112basic_stringIcSt11char_traitsIcESaIcEEENS1_3anyESt4lessIS9_ESaISt4pairIKS9_SA_EEEEE(ptr noundef nonnull align 8 dereferenceable(192) %this, ptr noundef nonnull %3, ptr noundef nonnull %agg.tmp)
          to label %invoke.cont unwind label %lpad

invoke.cont:                                      ; preds = %_ZN5boost10shared_ptrISt3mapINSt7__cxx1112basic_stringIcSt11char_traitsIcESaIcEEENS_3anyESt4lessIS7_ESaISt4pairIKS7_S8_EEEEC2ERKSG_.exit
  %4 = load ptr, ptr %pn.i, align 8, !tbaa !50
  %cmp.not.i.i2 = icmp eq ptr %4, null
  br i1 %cmp.not.i.i2, label %_ZN5boost10shared_ptrISt3mapINSt7__cxx1112basic_stringIcSt11char_traitsIcESaIcEEENS_3anyESt4lessIS7_ESaISt4pairIKS7_S8_EEEED2Ev.exit, label %if.then.i.i3

if.then.i.i3:                                     ; preds = %invoke.cont
  %use_count_.i.i.i4 = getelementptr inbounds nuw i8, ptr %4, i64 8
  %5 = atomicrmw sub ptr %use_count_.i.i.i4, i32 1 acq_rel, align 4
  %cmp.i.i.i = icmp eq i32 %5, 1
  br i1 %cmp.i.i.i, label %if.then.i.i.i, label %_ZN5boost10shared_ptrISt3mapINSt7__cxx1112basic_stringIcSt11char_traitsIcESaIcEEENS_3anyESt4lessIS7_ESaISt4pairIKS7_S8_EEEED2Ev.exit

if.then.i.i.i:                                    ; preds = %if.then.i.i3
  %vtable.i.i.i = load ptr, ptr %4, align 8, !tbaa !13
  %vfn.i.i.i = getelementptr inbounds i8, ptr %vtable.i.i.i, i64 16
  %6 = load ptr, ptr %vfn.i.i.i, align 8
  invoke void %6(ptr noundef nonnull align 8 dereferenceable(16) %4)
          to label %.noexc.i.i unwind label %terminate.lpad.i.i

.noexc.i.i:                                       ; preds = %if.then.i.i.i
  %weak_count_.i.i.i.i = getelementptr inbounds nuw i8, ptr %4, i64 12
  %7 = atomicrmw sub ptr %weak_count_.i.i.i.i, i32 1 acq_rel, align 4
  %cmp.i.i.i.i = icmp eq i32 %7, 1
  br i1 %cmp.i.i.i.i, label %if.then.i.i.i.i, label %_ZN5boost10shared_ptrISt3mapINSt7__cxx1112basic_stringIcSt11char_traitsIcESaIcEEENS_3anyESt4lessIS7_ESaISt4pairIKS7_S8_EEEED2Ev.exit

if.then.i.i.i.i:                                  ; preds = %.noexc.i.i
  %vtable.i.i.i.i = load ptr, ptr %4, align 8, !tbaa !13
  %vfn.i.i.i.i = getelementptr inbounds i8, ptr %vtable.i.i.i.i, i64 24
  %8 = load ptr, ptr %vfn.i.i.i.i, align 8
  invoke void %8(ptr noundef nonnull align 8 dereferenceable(16) %4)
          to label %_ZN5boost10shared_ptrISt3mapINSt7__cxx1112basic_stringIcSt11char_traitsIcESaIcEEENS_3anyESt4lessIS7_ESaISt4pairIKS7_S8_EEEED2Ev.exit unwind label %terminate.lpad.i.i

terminate.lpad.i.i:                               ; preds = %if.then.i.i.i.i, %if.then.i.i.i
  %9 = landingpad { ptr, i32 }
          catch ptr null
  %10 = extractvalue { ptr, i32 } %9, 0
  call void @__clang_call_terminate(ptr %10) #32
  unreachable

_ZN5boost10shared_ptrISt3mapINSt7__cxx1112basic_stringIcSt11char_traitsIcESaIcEEENS_3anyESt4lessIS7_ESaISt4pairIKS7_S8_EEEED2Ev.exit: ; preds = %invoke.cont, %if.then.i.i3, %.noexc.i.i, %if.then.i.i.i.i
  %11 = load ptr, ptr %vtt, align 8
  store ptr %11, ptr %this, align 8, !tbaa !13
  %12 = getelementptr inbounds i8, ptr %vtt, i64 80
  %13 = load ptr, ptr %12, align 8
  %vbase.offset.ptr = getelementptr i8, ptr %11, i64 -24
  %vbase.offset = load i64, ptr %vbase.offset.ptr, align 8
  %add.ptr = getelementptr inbounds i8, ptr %this, i64 %vbase.offset
  store ptr %13, ptr %add.ptr, align 8, !tbaa !13
  %14 = getelementptr inbounds i8, ptr %vtt, i64 88
  %15 = load ptr, ptr %14, align 8
  %vtable3 = load ptr, ptr %this, align 8, !tbaa !13
  %vbase.offset.ptr4 = getelementptr i8, ptr %vtable3, i64 -32
  %vbase.offset5 = load i64, ptr %vbase.offset.ptr4, align 8
  %add.ptr6 = getelementptr inbounds i8, ptr %this, i64 %vbase.offset5
  store ptr %15, ptr %add.ptr6, align 8, !tbaa !13
  %commodityType_ = getelementptr inbounds nuw i8, ptr %this, i64 192
  %16 = load ptr, ptr %commodityType, align 8, !tbaa !66
  store ptr %16, ptr %commodityType_, align 8, !tbaa !66
  %pn.i.i = getelementptr inbounds nuw i8, ptr %this, i64 200
  %pn3.i.i = getelementptr inbounds nuw i8, ptr %commodityType, i64 8
  %17 = load ptr, ptr %pn3.i.i, align 8, !tbaa !50
  store ptr %17, ptr %pn.i.i, align 8, !tbaa !50
  call void @llvm.memset.p0.i64(ptr noundef nonnull align 8 dereferenceable(16) %commodityType, i8 0, i64 16, i1 false)
  ret void

lpad:                                             ; preds = %_ZN5boost10shared_ptrISt3mapINSt7__cxx1112basic_stringIcSt11char_traitsIcESaIcEEENS_3anyESt4lessIS7_ESaISt4pairIKS7_S8_EEEEC2ERKSG_.exit
  %18 = landingpad { ptr, i32 }
          cleanup
  call void @_ZN5boost10shared_ptrISt3mapINSt7__cxx1112basic_stringIcSt11char_traitsIcESaIcEEENS_3anyESt4lessIS7_ESaISt4pairIKS7_S8_EEEED2Ev(ptr noundef nonnull align 8 dereferenceable(16) %agg.tmp) #31
  resume { ptr, i32 } %18
}